target datalayout = "e-m:e-p270:32:32-p271:32:32-p272:64:64-i64:64-i128:128-f80:128-n8:16:32:64-S128"
target triple = "x86_64-pc-linux-gnu"

%struct.Qureg = type { i32, i32, i32, i64, i64, i32, i32, %struct.ComplexArray, %struct.ComplexArray, %struct.ComplexArray, ptr, ptr, ptr, ptr, ptr, ptr }
%struct.ComplexArray = type { ptr, ptr }

@__func__.mixTwoQubitDephasing = private unnamed_addr constant [21 x i8] c"mixTwoQubitDephasing\00", align 1
@.str.33 = private unnamed_addr constant [99 x i8] c"Here, a phase (Z) error occured on either or both of qubits %d and %d with total probability %.14g\00", align 1

; Function Attrs: nounwind uwtable
define void @mixTwoQubitDephasing(ptr noundef byval(%struct.Qureg) align 8 %0, i32 noundef %1, i32 noundef %2, double noundef %3) #0 {
  %5 = alloca i32, align 4
  %6 = alloca i32, align 4
  %7 = alloca double, align 8
  store i32 %1, ptr %5, align 4, !tbaa !4
  store i32 %2, ptr %6, align 4, !tbaa !4
  store double %3, ptr %7, align 8, !tbaa !25
  call void @validateDensityMatrQureg(ptr noundef byval(%struct.Qureg) align 8 %0, ptr noundef @__func__.mixTwoQubitDephasing)
  %8 = load i32, ptr %5, align 4, !tbaa !4
  %9 = load i32, ptr %6, align 4, !tbaa !4
  call void @validateUniqueTargets(ptr noundef byval(%struct.Qureg) align 8 %0, i32 noundef %8, i32 noundef %9, ptr noundef @__func__.mixTwoQubitDephasing)
  %10 = load double, ptr %7, align 8, !tbaa !25
  call void @validateTwoQubitDephaseProb(double noundef %10, ptr noundef @__func__.mixTwoQubitDephasing)
  call void @ensureIndsIncrease(ptr noundef %5, ptr noundef %6)
  %11 = load i32, ptr %5, align 4, !tbaa !4
  %12 = load i32, ptr %6, align 4, !tbaa !4
  %13 = load double, ptr %7, align 8, !tbaa !25
  %14 = fmul double 4.000000e+00, %13
  %15 = fdiv double %14, 3.000000e+00
  call void @densmatr_mixTwoQubitDephasing(ptr noundef byval(%struct.Qureg) align 8 %0, i32 noundef %11, i32 noundef %12, double noundef %15)
  %16 = load i32, ptr %5, align 4, !tbaa !4
  %17 = load i32, ptr %6, align 4, !tbaa !4
  %18 = load double, ptr %7, align 8, !tbaa !25
  call void (ptr, ptr, ...) @qasm_recordComment(ptr noundef byval(%struct.Qureg) align 8 %0, ptr noundef @.str.33, i32 noundef %16, i32 noundef %17, double noundef %18)
  ret void
}